Certificate:
    Data:
        Version: 3 (0x2)
        Serial Number: 1048600 (0x100018)
        Signature Algorithm: md5WithRSAEncryption
        Issuer: C=US, ST=My State, O=My Company, OU=My Unit, CN=SAMPLE Signing CA
        Validity
            Not Before: Sep 14 19:30:20 2010 GMT
            Not After : Sep 11 19:30:20 2020 GMT
        Subject: C=US, ST=My State, O=My Company, OU=My Unit, CN=My Client
        Subject Public Key Info:
            Public Key Algorithm: rsaEncryption
            RSA Public Key: (2048 bit)
                Modulus (2048 bit):
                    00:e7:ec:00:70:6a:d4:54:f3:dd:e1:23:ef:9e:64:
                    9c:9f:79:71:8c:51:d0:5c:ac:23:08:bc:03:fa:46:
                    c7:5d:9f:0f:3d:f3:2b:3a:35:c1:86:65:d3:2e:c4:
                    85:df:05:ba:3e:f8:d9:75:97:1c:77:25:c7:9b:5e:
                    06:a8:a3:86:ff:ca:dd:47:83:0c:14:35:f5:3d:25:
                    20:fa:7a:70:47:c6:50:e5:39:11:f1:08:ff:32:3a:
                    b7:54:ca:c6:07:96:ba:9a:20:c5:a1:bd:f0:d8:e2:
                    e0:e0:e6:08:0c:74:fa:a2:de:08:4d:89:1f:6a:66:
                    6f:da:75:51:e7:47:f0:7e:a6:54:69:da:57:a1:44:
                    70:a4:da:43:f3:92:05:4a:d3:6d:6d:9c:a0:40:f3:
                    53:e8:28:d4:c5:c7:eb:12:bc:3d:26:f9:74:78:5d:
                    93:27:56:b4:00:1b:f5:d8:10:36:78:6c:ef:66:3a:
                    77:16:ed:5b:9b:3e:a0:54:dd:70:16:75:8a:59:55:
                    f4:ab:87:8e:d6:25:f1:c3:02:a0:c0:32:d4:62:b8:
                    3f:f8:7b:35:2d:30:b8:bd:cb:18:90:93:ca:d7:7d:
                    9d:ee:21:45:b7:56:c2:65:70:91:35:04:6e:bf:58:
                    b0:dd:5a:b3:a5:0d:14:a5:13:a8:92:96:ec:4d:8d:
                    8b:b5
                Exponent: 65537 (0x10001)
        X509v3 extensions:
            X509v3 Extended Key Usage: 
                TLS Web Client Authentication
    Signature Algorithm: md5WithRSAEncryption
        be:ab:12:3f:cb:c6:b1:f2:a9:00:46:4e:52:a1:a6:0b:b2:3d:
        a5:a1:ae:ed:29:9a:03:2c:1a:a1:64:c8:a6:76:46:79:98:8e:
        ff:60:78:01:8c:4b:a1:98:8c:ee:2a:8f:ee:7c:44:18:91:ea:
        38:b8:1e:2f:81:bd:20:d7:c2:ed:12:30:09:0a:11:0f:4d:4f:
        00:a5:a7:a0:f9:21:91:0f:f2:7d:d3:2e:9a:a7:7c:7a:ba:3a:
        9f:b8:ad:da:3f:e3:0b:ff:d8:53:d2:c5:27:65:e8:78:0a:5a:
        e6:50:62:67:c2:d7:de:6c:e1:6e:bb:37:a1:7b:51:82:0a:b0:
        18:c6:23:bc:61:e4:98:a3:d9:14:0f:5d:39:3f:c7:0d:32:2d:
        81:9f:09:59:8f:cf:3d:85:c8:db:ec:c8:e6:ae:79:8a:1b:dc:
        42:ee:99:2c:a6:b0:5d:c8:d1:f6:ab:ae:8f:b3:2f:3c:5e:20:
        39:fb:cd:f4:f9:ef:0c:bd:2c:69:7d:20:09:32:a9:4a:47:78:
        ab:33:cb:e6:05:ba:90:5c:52:78:13:d1:7d:7a:f5:b1:82:f2:
        69:20:f7:86:53:0c:6d:d1:83:13:d5:9d:5c:93:3a:d0:9f:16:
        f3:c3:31:2b:60:97:a0:36:84:8d:55:cc:0e:e3:17:f0:fc:84:
        93:0b:ee:d6
-----BEGIN CERTIFICATE-----
MIIDUjCCAjqgAwIBAgIDEAAYMA0GCSqGSIb3DQEBBAUAMGMxCzAJBgNVBAYTAlVT
MREwDwYDVQQIEwhNeSBTdGF0ZTETMBEGA1UEChMKTXkgQ29tcGFueTEQMA4GA1UE
CxMHTXkgVW5pdDEaMBgGA1UEAxMRU0FNUExFIFNpZ25pbmcgQ0EwHhcNMTAwOTE0
MTkzMDIwWhcNMjAwOTExMTkzMDIwWjBbMQswCQYDVQQGEwJVUzERMA8GA1UECBMI
TXkgU3RhdGUxEzARBgNVBAoTCk15IENvbXBhbnkxEDAOBgNVBAsTB015IFVuaXQx
EjAQBgNVBAMTCU15IENsaWVudDCCASIwDQYJKoZIhvcNAQEBBQADggEPADCCAQoC
ggEBAOfsAHBq1FTz3eEj755knJ95cYxR0FysIwi8A/pGx12fDz3zKzo1wYZl0y7E
hd8Fuj742XWXHHclx5teBqijhv/K3UeDDBQ19T0lIPp6cEfGUOU5EfEI/zI6t1TK
xgeWupogxaG98Nji4ODmCAx0+qLeCE2JH2pmb9p1UedH8H6mVGnaV6FEcKTaQ/OS
BUrTbW2coEDzU+go1MXH6xK8PSb5dHhdkydWtAAb9dgQNnhs72Y6dxbtW5s+oFTd
cBZ1illV9KuHjtYl8cMCoMAy1GK4P/h7NS0wuL3LGJCTytd9ne4hRbdWwmVwkTUE
br9YsN1as6UNFKUTqJKW7E2Ni7UCAwEAAaMXMBUwEwYDVR0lBAwwCgYIKwYBBQUH
AwIwDQYJKoZIhvcNAQEEBQADggEBAL6rEj/LxrHyqQBGTlKhpguyPaWhru0pmgMs
GqFkyKZ2RnmYjv9geAGMS6GYjO4qj+58RBiR6ji4Hi+BvSDXwu0SMAkKEQ9NTwCl
p6D5IZEP8n3TLpqnfHq6Op+4rdo/4wv/2FPSxSdl6HgKWuZQYmfC195s4W67N6F7
UYIKsBjGI7xh5Jij2RQPXTk/xw0yLYGfCVmPzz2FyNvsyOaueYob3ELumSymsF3I
0farro+zLzxeIDn7zfT57wy9LGl9IAkyqUpHeKszy+YFupBcUngT0X169bGC8mkg
94ZTDG3RgxPVnVyTOtCfFvPDMStgl6A2hI1VzA7jF/D8hJML7tY=
-----END CERTIFICATE-----
